
image:     file format elf32-lm32

Sections:
Idx Name          Size      VMA       LMA       File off  Algn
  0 .text         00000264  00000000  00000000  00000074  2**2
                  CONTENTS, ALLOC, LOAD, CODE
  1 .rodata       00000014  00000264  00000264  000002d8  2**2
                  CONTENTS, ALLOC, LOAD, READONLY, DATA
  2 .data         0000000c  00000278  00000278  000002ec  2**2
                  CONTENTS, ALLOC, LOAD, DATA
  3 .bss          00000004  00000284  00000284  000002f8  2**2
                  ALLOC
  4 .debug_abbrev 00000177  00000000  00000000  000002f8  2**0
                  CONTENTS, READONLY, DEBUGGING
  5 .debug_info   000003a0  00000000  00000000  0000046f  2**0
                  CONTENTS, READONLY, DEBUGGING
  6 .debug_line   00000294  00000000  00000000  0000080f  2**0
                  CONTENTS, READONLY, DEBUGGING
  7 .debug_frame  000000d0  00000000  00000000  00000aa4  2**2
                  CONTENTS, READONLY, DEBUGGING
  8 .debug_loc    000000a6  00000000  00000000  00000b74  2**0
                  CONTENTS, READONLY, DEBUGGING
  9 .debug_pubnames 000000e1  00000000  00000000  00000c1a  2**0
                  CONTENTS, READONLY, DEBUGGING
 10 .debug_aranges 00000040  00000000  00000000  00000cfb  2**0
                  CONTENTS, READONLY, DEBUGGING
 11 .debug_str    00000195  00000000  00000000  00000d3b  2**0
                  CONTENTS, READONLY, DEBUGGING
 12 .comment      0000005a  00000000  00000000  00000ed0  2**0
                  CONTENTS, READONLY
Disassembly of section .text:

00000000 <_ftext>:
   0:	98 00 00 00 	xor r0,r0,r0
   4:	d0 00 00 00 	wcsr IE,r0
   8:	78 01 00 00 	mvhi r1,0x0
   c:	38 21 00 00 	ori r1,r1,0x0
  10:	d0 e1 00 00 	wcsr EBA,r1
  14:	f8 00 00 03 	calli 20 <_crt0>
  18:	34 00 00 00 	nop
  1c:	34 00 00 00 	nop

00000020 <_crt0>:
  20:	78 1c 00 00 	mvhi sp,0x0
  24:	3b 9c 0f fc 	ori sp,sp,0xffc
  28:	78 1a 00 00 	mvhi gp,0x0
  2c:	3b 5a 02 90 	ori gp,gp,0x290
  30:	78 01 00 00 	mvhi r1,0x0
  34:	38 21 02 84 	ori r1,r1,0x284
  38:	78 03 00 00 	mvhi r3,0x0
  3c:	38 63 02 88 	ori r3,r3,0x288

00000040 <.clearBSS>:
  40:	44 23 00 04 	be r1,r3,50 <.callMain>
  44:	58 20 00 00 	sw (r1+0),r0
  48:	34 21 00 04 	addi r1,r1,4
  4c:	e3 ff ff fd 	bi 40 <.clearBSS>

00000050 <.callMain>:
  50:	34 01 00 00 	mvi r1,0
  54:	34 02 00 00 	mvi r2,0
  58:	34 03 00 00 	mvi r3,0
  5c:	f8 00 00 0c 	calli 8c <main>

00000060 <irq_enable>:
  60:	34 01 00 01 	mvi r1,1
  64:	d0 01 00 00 	wcsr IE,r1
  68:	c3 a0 00 00 	ret

0000006c <irq_mask>:
  6c:	34 01 00 0f 	mvi r1,15
  70:	d0 21 00 00 	wcsr IM,r1
  74:	c3 a0 00 00 	ret

00000078 <irq_disable>:
  78:	34 01 00 00 	mvi r1,0
  7c:	d0 01 00 00 	wcsr IE,r1
  80:	c3 a0 00 00 	ret

00000084 <jump>:
  84:	c0 20 00 00 	b r1

00000088 <halt>:
  88:	e0 00 00 00 	bi 88 <halt>

0000008c <main>:
#include "soc-hw.h"

int main (int argc, char **argv){
  8c:	37 9c ff f8 	addi sp,sp,-8
  90:	5b 8b 00 08 	sw (sp+8),r11
  94:	5b 9d 00 04 	sw (sp+4),ra

	uart_putstr("UART Funcionando\n\r");
  98:	78 01 00 00 	mvhi r1,0x0
  9c:	38 21 02 64 	ori r1,r1,0x264
  a0:	f8 00 00 62 	calli 228 <uart_putstr>
		}else{

			contador++;
		}

		show_led(contador);
  a4:	34 01 00 01 	mvi r1,1
  a8:	f8 00 00 24 	calli 138 <show_led>
		sleep(1000);
  ac:	34 01 03 e8 	mvi r1,1000
  b0:	f8 00 00 29 	calli 154 <sleep>
		}else{

			contador++;
		}

		show_led(contador);
  b4:	34 01 00 02 	mvi r1,2
  b8:	f8 00 00 20 	calli 138 <show_led>
		sleep(1000);
  bc:	34 01 03 e8 	mvi r1,1000
  c0:	f8 00 00 25 	calli 154 <sleep>
  c4:	34 0b 00 02 	mvi r11,2
		if(contador == 256){
			
			contador = 0;
		}else{

			contador++;
  c8:	35 6b 00 01 	addi r11,r11,1
		}

		show_led(contador);
  cc:	b9 60 08 00 	mv r1,r11
  d0:	f8 00 00 1a 	calli 138 <show_led>
		sleep(1000);
  d4:	34 01 03 e8 	mvi r1,1000
  d8:	f8 00 00 1f 	calli 154 <sleep>

	int contador = 0;

	for(;;){
		
		if(contador == 256){
  dc:	7d 62 01 00 	cmpnei r2,r11,256
  e0:	5c 40 ff fa 	bne r2,r0,c8 <main+0x3c>
		}else{

			contador++;
		}

		show_led(contador);
  e4:	34 01 00 00 	mvi r1,0
  e8:	f8 00 00 14 	calli 138 <show_led>
		sleep(1000);
  ec:	34 01 03 e8 	mvi r1,1000
  f0:	f8 00 00 19 	calli 154 <sleep>
  f4:	34 0b 00 00 	mvi r11,0
  f8:	e3 ff ff f4 	bi c8 <main+0x3c>

000000fc <read_sw>:
uint32_t msec = 0;

/***************************************************************************
 * General utility functions
 */
int read_sw(){
  fc:	78 01 00 00 	mvhi r1,0x0
 100:	38 21 02 80 	ori r1,r1,0x280
 104:	28 23 00 00 	lw r3,(r1+0)
 108:	34 02 00 10 	mvi r2,16
 10c:	58 62 00 00 	sw (r3+0),r2
	gpio0->ctrl = 0x10;
	return gpio0->in;
 110:	28 61 00 10 	lw r1,(r3+16)
}
 114:	c3 a0 00 00 	ret

00000118 <show_char>:

void show_char(char ascii){
 118:	78 02 00 00 	mvhi r2,0x0
 11c:	38 42 02 80 	ori r2,r2,0x280
 120:	28 43 00 00 	lw r3,(r2+0)
 124:	34 02 00 14 	mvi r2,20
 128:	20 21 00 ff 	andi r1,r1,0xff
	gpio0->ctrl = 0x14;
 12c:	58 62 00 00 	sw (r3+0),r2
	gpio0->out = ascii;
 130:	58 61 00 14 	sw (r3+20),r1
}
 134:	c3 a0 00 00 	ret

00000138 <show_led>:

void show_led(int led){
 138:	78 02 00 00 	mvhi r2,0x0
 13c:	38 42 02 80 	ori r2,r2,0x280
 140:	28 43 00 00 	lw r3,(r2+0)
 144:	34 02 00 14 	mvi r2,20
 148:	58 62 00 00 	sw (r3+0),r2
	gpio0->ctrl = 0x14;
	gpio0->out = led;
 14c:	58 61 00 14 	sw (r3+20),r1
}
 150:	c3 a0 00 00 	ret

00000154 <sleep>:

void sleep(int msec)
{
 154:	78 03 00 00 	mvhi r3,0x0
 158:	78 02 00 01 	mvhi r2,0x1
 15c:	38 42 86 a0 	ori r2,r2,0x86a0
 160:	38 63 02 7c 	ori r3,r3,0x27c
 164:	88 22 08 00 	mul r1,r1,r2
 168:	28 63 00 00 	lw r3,(r3+0)
	uint32_t tcr;

	// Use timer0.1
	timer0->compare1 = (FCPU/1000)*msec;
	timer0->counter1 = 0;
	timer0->tcr1 = TIMER_EN | TIMER_IRQEN;
 16c:	34 02 00 0a 	mvi r2,10
void sleep(int msec)
{
	uint32_t tcr;

	// Use timer0.1
	timer0->compare1 = (FCPU/1000)*msec;
 170:	58 61 00 10 	sw (r3+16),r1
	timer0->counter1 = 0;
 174:	34 01 00 00 	mvi r1,0
 178:	58 61 00 14 	sw (r3+20),r1
	timer0->tcr1 = TIMER_EN | TIMER_IRQEN;
 17c:	58 62 00 0c 	sw (r3+12),r2

	do {
		//halt();
 		tcr = timer0->tcr1;
 180:	28 61 00 0c 	lw r1,(r3+12)
 	} while ( ! (tcr & TIMER_TRIG) );
 184:	20 21 00 01 	andi r1,r1,0x1
 188:	64 21 00 00 	cmpei r1,r1,0
 18c:	5c 20 ff fd 	bne r1,r0,180 <sleep+0x2c>
}
 190:	c3 a0 00 00 	ret

00000194 <tic_init>:

void tic_init()
{
 194:	78 01 00 00 	mvhi r1,0x0
 198:	38 21 02 7c 	ori r1,r1,0x27c
 19c:	28 23 00 00 	lw r3,(r1+0)
 1a0:	78 02 00 01 	mvhi r2,0x1
 1a4:	38 42 86 a0 	ori r2,r2,0x86a0
 1a8:	58 62 00 04 	sw (r3+4),r2
	// Setup timer0.0
	timer0->compare0 = (FCPU/1000);
	timer0->counter0 = 0;
 1ac:	34 01 00 00 	mvi r1,0
 1b0:	58 61 00 08 	sw (r3+8),r1
	timer0->tcr0     = TIMER_EN | TIMER_AR | TIMER_IRQEN;
 1b4:	34 02 00 0e 	mvi r2,14
 1b8:	58 62 00 00 	sw (r3+0),r2
}
 1bc:	c3 a0 00 00 	ret

000001c0 <uart_init>:

/***************************************************************************
 * UART Functions
 */
void uart_init()
{
 1c0:	c3 a0 00 00 	ret

000001c4 <uart_read>:
	// Setup Divisor register (Fclk / Baud)
	//uart0->div = (FCPU/(57600*16));
}

char uart_read()
{   
 1c4:	78 01 00 00 	mvhi r1,0x0
 1c8:	38 21 02 78 	ori r1,r1,0x278
 1cc:	28 22 00 00 	lw r2,(r1+0)
 1d0:	28 41 00 04 	lw r1,(r2+4)
	return uart0->rxtx;
}
 1d4:	20 21 00 ff 	andi r1,r1,0xff
 1d8:	c3 a0 00 00 	ret

000001dc <uart_getchar>:
char uart_getchar()
{   
 1dc:	78 01 00 00 	mvhi r1,0x0
 1e0:	38 21 02 78 	ori r1,r1,0x278
 1e4:	28 22 00 00 	lw r2,(r1+0)
 1e8:	28 41 00 00 	lw r1,(r2+0)
 1ec:	20 21 00 01 	andi r1,r1,0x1
 1f0:	64 21 00 00 	cmpei r1,r1,0
 1f4:	5c 20 ff fd 	bne r1,r0,1e8 <uart_getchar+0xc>
	while (! (uart0->ucr & UART_DR)) ;
	return uart0->rxtx;
 1f8:	28 41 00 04 	lw r1,(r2+4)
}
 1fc:	20 21 00 ff 	andi r1,r1,0xff
 200:	c3 a0 00 00 	ret

00000204 <uart_putchar>:

void uart_putchar(char c)
{
 204:	78 02 00 00 	mvhi r2,0x0
 208:	38 42 02 78 	ori r2,r2,0x278
 20c:	28 42 00 00 	lw r2,(r2+0)
 210:	20 23 00 ff 	andi r3,r1,0xff
	while (uart0->ucr & UART_BUSY) ;
 214:	28 41 00 00 	lw r1,(r2+0)
 218:	20 21 00 10 	andi r1,r1,0x10
 21c:	5c 20 ff fe 	bne r1,r0,214 <uart_putchar+0x10>
	uart0->rxtx = c;
 220:	58 43 00 04 	sw (r2+4),r3
}
 224:	c3 a0 00 00 	ret

00000228 <uart_putstr>:

void uart_putstr(char *str)
{
 228:	37 9c ff f8 	addi sp,sp,-8
 22c:	5b 8b 00 08 	sw (sp+8),r11
 230:	5b 9d 00 04 	sw (sp+4),ra
 234:	b8 20 10 00 	mv r2,r1
	char *c = str;
	while(*c) {
 238:	40 21 00 00 	lbu r1,(r1+0)
 23c:	44 20 00 06 	be r1,r0,254 <uart_putstr+0x2c>
 240:	b8 40 58 00 	mv r11,r2
		uart_putchar(*c);
		c++;
 244:	35 6b 00 01 	addi r11,r11,1

void uart_putstr(char *str)
{
	char *c = str;
	while(*c) {
		uart_putchar(*c);
 248:	fb ff ff ef 	calli 204 <uart_putchar>
}

void uart_putstr(char *str)
{
	char *c = str;
	while(*c) {
 24c:	41 61 00 00 	lbu r1,(r11+0)
 250:	5c 20 ff fd 	bne r1,r0,244 <uart_putstr+0x1c>
		uart_putchar(*c);
		c++;
	}
}
 254:	2b 8b 00 08 	lw r11,(sp+8)
 258:	2b 9d 00 04 	lw ra,(sp+4)
 25c:	37 9c 00 08 	addi sp,sp,8
 260:	c3 a0 00 00 	ret
